; Function Attrs: mustprogress uwtable
define hidden noundef i32 @_ZN2cv4usac11mergePointsERKNS_11_InputArrayES3_RNS_3MatEb(ptr noundef nonnull align 8 dereferenceable(24) %0, ptr noundef nonnull align 8 dereferenceable(24) %1, ptr noundef nonnull align 8 dereferenceable(96) %2, i1 noundef zeroext %3) local_unnamed_addr #4 personality ptr @__gxx_personality_v0 {
  %5 = alloca %"class.cv::Mat", align 8
  %6 = alloca %"class.cv::Mat", align 8
  %7 = alloca %"class.cv::_InputArray", align 8
  %8 = alloca %"class.cv::_InputArray", align 8
  %9 = alloca %"class.cv::_OutputArray", align 8
  call void @llvm.lifetime.start.p0(i64 96, ptr nonnull %5) #27
  %10 = tail call noundef i32 @_ZNK2cv11_InputArray4kindEv(ptr noundef nonnull align 8 dereferenceable(24) %0), !noalias !54
  %11 = icmp eq i32 %10, 65536
  br i1 %11, label %12, label %15

12:                                               ; preds = %4
  %13 = getelementptr inbounds nuw i8, ptr %0, i64 8
  %14 = load ptr, ptr %13, align 8, !tbaa !57, !noalias !54
  call void @_ZN2cv3MatC1ERKS0_(ptr noundef nonnull align 8 dereferenceable(96) %5, ptr noundef nonnull align 8 dereferenceable(96) %14)
  br label %_ZNK2cv11_InputArray6getMatEi.exit

15:                                               ; preds = %4
  call void @_ZNK2cv11_InputArray7getMat_Ei(ptr dead_on_unwind nonnull writable sret(%"class.cv::Mat") align 8 %5, ptr noundef nonnull align 8 dereferenceable(24) %0, i32 noundef -1)
  br label %_ZNK2cv11_InputArray6getMatEi.exit

_ZNK2cv11_InputArray6getMatEi.exit:               ; preds = %12, %15
  call void @llvm.lifetime.start.p0(i64 96, ptr nonnull %6) #27
  %16 = invoke noundef i32 @_ZNK2cv11_InputArray4kindEv(ptr noundef nonnull align 8 dereferenceable(24) %1)
          to label %.noexc unwind label %36

.noexc:                                           ; preds = %_ZNK2cv11_InputArray6getMatEi.exit
  %17 = icmp eq i32 %16, 65536
  br i1 %17, label %18, label %21

18:                                               ; preds = %.noexc
  %19 = getelementptr inbounds nuw i8, ptr %1, i64 8
  %20 = load ptr, ptr %19, align 8, !tbaa !57, !noalias !60
  invoke void @_ZN2cv3MatC1ERKS0_(ptr noundef nonnull align 8 dereferenceable(96) %6, ptr noundef nonnull align 8 dereferenceable(96) %20)
          to label %_ZNK2cv11_InputArray6getMatEi.exit18 unwind label %36

21:                                               ; preds = %.noexc
  invoke void @_ZNK2cv11_InputArray7getMat_Ei(ptr dead_on_unwind nonnull writable sret(%"class.cv::Mat") align 8 %6, ptr noundef nonnull align 8 dereferenceable(24) %1, i32 noundef -1)
          to label %_ZNK2cv11_InputArray6getMatEi.exit18 unwind label %36

_ZNK2cv11_InputArray6getMatEi.exit18:             ; preds = %18, %21
  invoke fastcc void @"_ZZN2cv4usac11mergePointsERKNS_11_InputArrayES3_RNS_3MatEbENK3$_0clES5_i"(ptr noundef nonnull align 8 dereferenceable(96) %5, i32 noundef 2)
          to label %22 unwind label %38

22:                                               ; preds = %_ZNK2cv11_InputArray6getMatEi.exit18
  %23 = select i1 %3, i32 3, i32 2
  invoke fastcc void @"_ZZN2cv4usac11mergePointsERKNS_11_InputArrayES3_RNS_3MatEbENK3$_0clES5_i"(ptr noundef nonnull align 8 dereferenceable(96) %6, i32 noundef %23)
          to label %24 unwind label %38

24:                                               ; preds = %22
  call void @llvm.lifetime.start.p0(i64 24, ptr nonnull %7) #27
  %25 = getelementptr inbounds nuw i8, ptr %7, i64 16
  store i32 0, ptr %25, align 8, !tbaa !63
  %26 = getelementptr inbounds nuw i8, ptr %7, i64 20
  store i32 0, ptr %26, align 4, !tbaa !64
  store i32 16842752, ptr %7, align 8, !tbaa !65
  %27 = getelementptr inbounds nuw i8, ptr %7, i64 8
  store ptr %5, ptr %27, align 8, !tbaa !57
  call void @llvm.lifetime.start.p0(i64 24, ptr nonnull %8) #27
  %28 = getelementptr inbounds nuw i8, ptr %8, i64 16
  store i32 0, ptr %28, align 8, !tbaa !63
  %29 = getelementptr inbounds nuw i8, ptr %8, i64 20
  store i32 0, ptr %29, align 4, !tbaa !64
  store i32 16842752, ptr %8, align 8, !tbaa !65
  %30 = getelementptr inbounds nuw i8, ptr %8, i64 8
  store ptr %6, ptr %30, align 8, !tbaa !57
  call void @llvm.lifetime.start.p0(i64 24, ptr nonnull %9) #27
  %31 = getelementptr inbounds nuw i8, ptr %9, i64 8
  %32 = getelementptr inbounds nuw i8, ptr %9, i64 16
  store i64 0, ptr %32, align 8
  store i32 33619968, ptr %9, align 8, !tbaa !65
  store ptr %2, ptr %31, align 8, !tbaa !57
  invoke void @_ZN2cv7hconcatERKNS_11_InputArrayES2_RKNS_12_OutputArrayE(ptr noundef nonnull align 8 dereferenceable(24) %7, ptr noundef nonnull align 8 dereferenceable(24) %8, ptr noundef nonnull align 8 dereferenceable(24) %9)
          to label %33 unwind label %40

33:                                               ; preds = %24
  call void @llvm.lifetime.end.p0(i64 24, ptr nonnull %9) #27
  call void @llvm.lifetime.end.p0(i64 24, ptr nonnull %8) #27
  call void @llvm.lifetime.end.p0(i64 24, ptr nonnull %7) #27
  %34 = getelementptr inbounds nuw i8, ptr %2, i64 8
  %35 = load i32, ptr %34, align 8, !tbaa !66
  call void @_ZN2cv3MatD1Ev(ptr noundef nonnull align 8 dereferenceable(96) %6) #27
  call void @llvm.lifetime.end.p0(i64 96, ptr nonnull %6) #27
  call void @_ZN2cv3MatD1Ev(ptr noundef nonnull align 8 dereferenceable(96) %5) #27
  call void @llvm.lifetime.end.p0(i64 96, ptr nonnull %5) #27
  ret i32 %35

36:                                               ; preds = %21, %18, %_ZNK2cv11_InputArray6getMatEi.exit
  %37 = landingpad { ptr, i32 }
          cleanup
  br label %43

38:                                               ; preds = %22, %_ZNK2cv11_InputArray6getMatEi.exit18
  %39 = landingpad { ptr, i32 }
          cleanup
  br label %42

40:                                               ; preds = %24
  %41 = landingpad { ptr, i32 }
          cleanup
  call void @llvm.lifetime.end.p0(i64 24, ptr nonnull %9) #27
  call void @llvm.lifetime.end.p0(i64 24, ptr nonnull %8) #27
  call void @llvm.lifetime.end.p0(i64 24, ptr nonnull %7) #27
  br label %42

42:                                               ; preds = %40, %38
  %.pn.pn.pn.pn = phi { ptr, i32 } [ %41, %40 ], [ %39, %38 ]
  call void @_ZN2cv3MatD1Ev(ptr noundef nonnull align 8 dereferenceable(96) %6) #27
  br label %43

43:                                               ; preds = %42, %36
  %.pn.pn.pn.pn.pn = phi { ptr, i32 } [ %.pn.pn.pn.pn, %42 ], [ %37, %36 ]
  call void @llvm.lifetime.end.p0(i64 96, ptr nonnull %6) #27
  call void @_ZN2cv3MatD1Ev(ptr noundef nonnull align 8 dereferenceable(96) %5) #27
  call void @llvm.lifetime.end.p0(i64 96, ptr nonnull %5) #27
  resume { ptr, i32 } %.pn.pn.pn.pn.pn
}